(lp1
F-13.050000000000001
aF-6.4299999999999997
aF-5.3200000000000003
aF-12.07
aF-8.9399999999999995
aF-18.050000000000001
aF-18.579999999999998
aF-13.77
aF-7.5999999999999996
aF-10.43
aF-8.0899999999999999
aF-12.279999999999999
aF-13.23
aF-11.300000000000001
aF-10.199999999999999
aF-9.1799999999999997
aF-10.76
aF-9.7599999999999998
aF-15.550000000000001
aF-9.4700000000000006
aF-11.140000000000001
aF-10.02
aF-12.34
aF-11.24
aF-7.5300000000000002
aF-13.859999999999999
aF-11.19
aF-11.32
aF-12.970000000000001
aF-8.8399999999999999
aF-8.0899999999999999
aF-12.720000000000001
aF-8.9000000000000004
aF-7.0800000000000001
aF-12.039999999999999
aF-8.0299999999999994
aF-6.71
aF-9.8200000000000003
aF-10.98
aF-13.34
aF-15.68
aF-10.65
aF-11.73
aF-10.67
aF-9.5700000000000003
aF-11.32
a.