(dp1
S'SIPPER'
p2
(dp3
S'docking'
p4
S'-'
sS'native'
p5
(lp6
F-11.544003244945722
aF-11.021286579720266
aF-9.8862480870725236
aF-11.068415792859746
aF-10.967595071080355
aF-10.596407774683096
aF-10.27055997447065
aF-10.852217984736365
aF-11.400587259645334
aF-11.109459968353367
aF-10.651173113495805
aF-10.88240454403836
aF-10.822508683288948
aF-12.189971751115689
aF-10.111513794432867
aF-10.405027374997719
aF-11.618574784723378
aF-10.263759050042928
aF-10.207442623202843
aF-11.436500913202254
aF-11.707225431211056
aF-10.201238271093342
aF-11.039780321585125
aF-10.351455180821452
aF-10.52887578826045
aF-10.342387281584488
aF-11.975921603337905
aF-10.780152048695239
aF-12.703620517104181
aF-10.84756472065424
aF-10.648667509759276
aF-11.705316399792748
aF-11.110295169598876
aF-10.623014900075763
aF-11.989762081120638
aF-10.594976001119365
aF-10.371738639640974
aF-10.067486757348139
aF-10.907460581403653
aF-10.022743833481545
aF-10.664059075569385
aF-11.681930764918475
aF-11.337469908377528
aF-10.105309442323366
aF-10.856393990963914
aF-12.07912861439018
assS'PISA'
p7
(dp8
g4
S'-'
sg5
(lp9
F-11.498823993331129
aF-9.8419886033696891
aF-10.274480641997371
aF-11.684177724171564
aF-11.061288315769014
aF-11.776224134724977
aF-11.031656937029217
aF-12.721906434931277
aF-11.059396951168601
aF-9.8186617732979347
aF-10.744169517766501
aF-10.692472218688556
aF-11.188640198863462
aF-11.437039416384316
aF-10.12569329343158
aF-11.472975343792157
aF-10.358961594149134
aF-10.647709923145458
aF-11.294556616486569
aF-15.680631124843391
aF-10.942132345943019
aF-9.7171585397424582
aF-12.864389234829027
aF-11.379037568638331
aF-8.6561029989109883
aF-10.457312553370588
aF-11.90735874702025
aF-11.151443361722015
aF-12.286892576836379
aF-10.834955018586307
aF-9.8155094989639124
aF-11.351297554498945
aF-11.849987354141067
aF-11.597805407419388
aF-11.87268372934602
aF-10.240436079189944
aF-9.0520286552640261
aF-10.911870512336417
aF-9.3981483771395329
aF-10.575207613462975
aF-10.932045068074153
aF-11.991839699172013
aF-17.48121022443619
aF-10.360222503882742
aF-9.5330657186356316
aF-9.8514454263717521
assS'ROSSETADOCK'
p10
(dp11
g4
S'-'
sg5
(lp12
F-11.03359133263357
aF-11.053265474449862
aF-10.661012271987541
aF-11.382069569554641
aF-11.114009387307663
aF-10.242936758391338
aF-11.261934341088908
aF-12.14087662673175
aF-12.44607175165698
aF-10.661258198760244
aF-10.709582809596512
aF-11.135159089760176
aF-11.389201445963046
aF-8.6618735366795772
aF-10.96952740834427
aF-11.073062579652506
aF-11.468389866773622
aF-11.290953700267938
aF-11.439862361139998
aF-12.564977346259194
aF-9.9306097570577023
aF-10.617975086764403
aF-11.616068893782163
aF-10.757169640114668
aF-10.466484194778955
aF-11.138233174418973
aF-11.598731056306555
aF-11.317636755106285
aF-11.939585563273814
aF-10.939155451915369
aF-10.872386333126327
aF-10.888494536738417
aF-11.926305517547817
aF-11.074538140288727
aF-11.743458962042654
aF-10.663102649555523
aF-10.373769801469679
aF-11.286895908518328
aF-11.030640211361126
aF-11.197255599867848
aF-10.856278129514239
aF-11.30251225858501
aF-12.795533695668865
aF-11.269435107656369
aF-10.495749480730689
aF-10.799960898565104
assS'PYDOCK'
p13
(dp14
g4
S'-'
sg5
(lp15
F-11.423473074856297
aF-10.102471048717465
aF-9.9748727485520092
aF-10.838651972177292
aF-11.429067154821798
aF-12.276223969406736
aF-12.234614669853825
aF-10.92469424974189
aF-11.542653616597477
aF-10.388834665999024
aF-10.440033816921364
aF-10.22309006816406
aF-10.37626130531466
aF-11.378294219515876
aF-9.5712465598031571
aF-10.358040587712747
aF-10.813079035192148
aF-10.889318353579107
aF-10.659375028521023
aF-13.970004829056091
aF-12.278355047488832
aF-9.6286791141156254
aF-12.638347412506782
aF-12.047985506814328
aF-9.5501488867904136
aF-10.900826175222422
aF-11.676432043201011
aF-10.348876951959737
aF-11.582504776732659
aF-11.196673089969304
aF-9.742851622363883
aF-12.263011285297745
aF-11.342385553832571
aF-11.522248543961414
aF-11.428001615780749
aF-10.597094271571788
aF-9.9238334284858265
aF-10.636465939138498
aF-10.603327674961916
aF-10.86838051142252
aF-11.179624465312541
aF-11.617507734231076
aF-15.42782206806544
aF-11.701845149329998
aF-10.859163598717458
aF-10.950906510151661
assS'ZRANK'
p16
(dp17
g4
S'-'
sg5
(lp18
F-11.015496400041826
aF-10.151050484149318
aF-11.032552879519644
aF-11.221180812165432
aF-11.005415637856682
aF-11.150048345382215
aF-10.932922055504163
aF-11.593927982133696
aF-10.914646243328846
aF-10.3036088542086
aF-10.711918004082317
aF-11.082347024096613
aF-11.005047002389997
aF-11.980640764974488
aF-10.418073002272038
aF-10.668553712741582
aF-10.889108312459815
aF-11.344843832951405
aF-10.809189561111008
aF-12.917357664110787
aF-10.889367775115213
aF-10.601779651437568
aF-12.040288819141718
aF-11.499188667195394
aF-10.204610381801357
aF-11.107003065503035
aF-11.416047191170524
aF-10.677684529685651
aF-11.359206437864978
aF-10.814677976078475
aF-10.368158342254036
aF-11.777012204492015
aF-11.586725412246139
aF-12.766288014205429
aF-10.801649547988562
aF-10.634764018733657
aF-10.142554854470923
aF-11.263403751388159
aF-10.572492981438083
aF-10.759993740253044
aF-11.135714097043003
aF-11.191264626215146
aF-15.250536602489543
aF-11.066070350413709
aF-10.203510146716171
aF-10.419811260280333
assS'ZRANK2'
p19
(dp20
g4
S'-'
sg5
(lp21
F-10.970699313314809
aF-10.371140722434369
aF-10.867842613496627
aF-10.950713708963196
aF-11.035468888849547
aF-11.426046743821342
aF-11.171490244289867
aF-11.846006776073791
aF-11.241296764501289
aF-10.822696134931467
aF-10.721442099328595
aF-10.727437780634078
aF-10.781556316904579
aF-12.060763780925109
aF-10.409003664521029
aF-10.766683974573235
aF-10.660574247984696
aF-11.118635714022512
aF-10.861608440492436
aF-12.742029627782429
aF-10.90299628988598
aF-10.552356254779591
aF-12.121326362894663
aF-11.412605351682238
aF-10.361963561868139
aF-10.958645942862177
aF-11.382040255576001
aF-10.372376109433668
aF-11.270311664565934
aF-10.743259319926274
aF-10.560479282037537
aF-11.186810951014779
aF-10.828582110055546
aF-12.152950362143157
aF-11.110388671081237
aF-10.975058941567164
aF-10.404109814863569
aF-11.100753606453491
aF-10.544796067930591
aF-10.443012580756589
aF-11.176670283985775
aF-11.449571564981762
aF-13.820427081492003
aF-11.10628184402951
aF-10.530176526799876
aF-10.803793282891982
assS'PIE'
p22
(dp23
g4
S'-'
sg5
(lp24
F-10.930164966066734
aF-9.7231301347134682
aF-10.252435185613056
aF-11.47315662448141
aF-11.067208370643611
aF-11.971040334060531
aF-10.985201571551436
aF-12.354824200855834
aF-11.71019233084108
aF-10.45454415987788
aF-10.26787180170585
aF-11.158576013980499
aF-10.777652703683245
aF-12.147192937496779
aF-10.875210756072894
aF-10.565675973784259
aF-11.314169151239781
aF-10.686507169930426
aF-11.225934327762062
aF-14.856675511840335
aF-10.528171695790419
aF-10.221732118028166
aF-13.038459588556893
aF-11.153899174270789
aF-9.70222138330349
aF-10.985860735478351
aF-11.569124085656114
aF-10.833724626422722
aF-12.314527432204224
aF-10.564302118534414
aF-10.537881825268144
aF-13.278875301248323
aF-11.355678566572156
aF-11.613332848917453
aF-11.097764559310002
aF-10.287634181069018
aF-9.2894110180417542
aF-10.484229822271226
aF-10.377624386743413
aF-10.343915674948301
aF-10.577282990758187
aF-11.398033431289051
aF-16.480851845344681
aF-10.423378961061621
aF-9.8577177954213244
aF-10.420188822600114
ass.