(lp1
F-12.5
aF-6.5499999999999998
aF-13.23
aF-17.32
aF-9.6999999999999993
aF-15.06
aF-10.75
aF-8.2799999999999994
aF-14.06
aF-10.119999999999999
aF-7.4299999999999997
aF-14.19
aF-6.5099999999999998
aF-6.7599999999999998
aF-11.32
aF-10.42
aF-12.82
aF-7.2800000000000002
aF-14.51
aF-12.279999999999999
aF-15.56
aF-7.1600000000000001
aF-14.17
aF-8.1799999999999997
aF-4.29
aF-18
aF-11.17
aF-9.0800000000000001
aF-10.25
aF-11.67
aF-12.109999999999999
aF-10.859999999999999
aF-7.6900000000000004
aF-12.08
aF-10.15
aF-7.4199999999999999
aF-5.6600000000000001
aF-11.960000000000001
aF-6.8200000000000003
aF-7.9100000000000001
aF-18.039999999999999
aF-13.84
aF-15.960000000000001
aF-7.54
aF-11.26
aF-13.4
aF-11.44
aF-14.51
a.